target datalayout = "e-m:e-p270:32:32-p271:32:32-p272:64:64-i64:64-i128:128-f80:128-n8:16:32:64-S128"
target triple = "x86_64-pc-linux-gnu"

@.str = private unnamed_addr constant [29 x i8] c"Failed to set close on exec\0A\00", align 1

; Function Attrs: nounwind uwtable
define i32 @ff_socket(i32 noundef %0, i32 noundef %1, i32 noundef %2, ptr noundef %3) #0 {
  %5 = alloca i32, align 4
  %6 = alloca i32, align 4
  %7 = alloca i32, align 4
  %8 = alloca ptr, align 8
  %9 = alloca i32, align 4
  store i32 %0, ptr %5, align 4, !tbaa !4
  store i32 %1, ptr %6, align 4, !tbaa !4
  store i32 %2, ptr %7, align 4, !tbaa !4
  store ptr %3, ptr %8, align 8, !tbaa !26
  call void @llvm.lifetime.start.p0(i64 4, ptr %9) #10
  %10 = load i32, ptr %5, align 4, !tbaa !4
  %11 = load i32, ptr %6, align 4, !tbaa !4
  %12 = or i32 %11, 524288
  %13 = load i32, ptr %7, align 4, !tbaa !4
  %14 = call i32 @socket(i32 noundef %10, i32 noundef %12, i32 noundef %13) #10
  store i32 %14, ptr %9, align 4, !tbaa !4
  %15 = load i32, ptr %9, align 4, !tbaa !4
  %16 = icmp eq i32 %15, -1
  br i1 %16, label %17, label %36

17:                                               ; preds = %4
  %18 = call ptr @__errno_location() #11
  %19 = load i32, ptr %18, align 4, !tbaa !4
  %20 = icmp eq i32 %19, 22
  br i1 %20, label %21, label %36

21:                                               ; preds = %17
  %22 = load i32, ptr %5, align 4, !tbaa !4
  %23 = load i32, ptr %6, align 4, !tbaa !4
  %24 = load i32, ptr %7, align 4, !tbaa !4
  %25 = call i32 @socket(i32 noundef %22, i32 noundef %23, i32 noundef %24) #10
  store i32 %25, ptr %9, align 4, !tbaa !4
  %26 = load i32, ptr %9, align 4, !tbaa !4
  %27 = icmp ne i32 %26, -1
  br i1 %27, label %28, label %35

28:                                               ; preds = %21
  %29 = load i32, ptr %9, align 4, !tbaa !4
  %30 = call i32 (i32, i32, ...) @fcntl64(i32 noundef %29, i32 noundef 2, i32 noundef 1)
  %31 = icmp eq i32 %30, -1
  br i1 %31, label %32, label %34

32:                                               ; preds = %28
  %33 = load ptr, ptr %8, align 8, !tbaa !26
  call void (ptr, i32, ptr, ...) @av_log(ptr noundef %33, i32 noundef 48, ptr noundef @.str)
  br label %34

34:                                               ; preds = %32, %28
  br label %35

35:                                               ; preds = %34, %21
  br label %36

36:                                               ; preds = %35, %17, %4
  %37 = load i32, ptr %9, align 4, !tbaa !4
  call void @llvm.lifetime.end.p0(i64 4, ptr %9) #10
  ret i32 %37
}