; Function Attrs: nounwind uwtable
define i32 @ff_socket(i32 noundef %0, i32 noundef %1, i32 noundef %2, ptr noundef %3) local_unnamed_addr #1 {
  %5 = or i32 %1, 524288
  %6 = tail call i32 @socket(i32 noundef %0, i32 noundef %5, i32 noundef %2) #12
  %7 = icmp eq i32 %6, -1
  br i1 %7, label %8, label %18

8:                                                ; preds = %4
  %9 = tail call ptr @__errno_location() #13
  %10 = load i32, ptr %9, align 4, !tbaa !12
  %11 = icmp eq i32 %10, 22
  br i1 %11, label %12, label %18

12:                                               ; preds = %8
  %13 = tail call i32 @socket(i32 noundef %0, i32 noundef %1, i32 noundef %2) #12
  %.not = icmp eq i32 %13, -1
  br i1 %.not, label %18, label %14

14:                                               ; preds = %12
  %15 = tail call i32 (i32, i32, ...) @fcntl64(i32 noundef %13, i32 noundef 2, i32 noundef 1) #12
  %16 = icmp eq i32 %15, -1
  br i1 %16, label %17, label %18

17:                                               ; preds = %14
  tail call void (ptr, i32, ptr, ...) @av_log(ptr noundef %3, i32 noundef 48, ptr noundef nonnull @.str) #12
  br label %18

18:                                               ; preds = %12, %17, %14, %8, %4
  %.0 = phi i32 [ %13, %17 ], [ %13, %14 ], [ -1, %12 ], [ -1, %8 ], [ %6, %4 ]
  ret i32 %.0
}